; Function Attrs: nofree norecurse nosync nounwind memory(argmem: readwrite) uwtable
define internal void @h264_v_loop_filter_chroma_intra_14_c(ptr noundef captures(none) %0, i64 noundef %1, i32 noundef %2, i32 noundef %3) #1 {
  %5 = ashr i64 %1, 1
  %6 = shl i32 %2, 6
  %7 = shl i32 %3, 6
  %8 = sub nsw i64 0, %5
  %.idx.i = mul nsw i64 %5, -4
  br label %9

9:                                                ; preds = %4, %45
  %.0.i4 = phi i32 [ 0, %4 ], [ %47, %45 ]
  %.046.i3 = phi ptr [ %0, %4 ], [ %46, %45 ]
  %10 = getelementptr inbounds i16, ptr %.046.i3, i64 %8
  %11 = load i16, ptr %10, align 2, !tbaa !37
  %12 = zext i16 %11 to i32
  %13 = getelementptr inbounds i8, ptr %.046.i3, i64 %.idx.i
  %14 = load i16, ptr %13, align 2, !tbaa !37
  %15 = zext i16 %14 to i32
  %16 = load i16, ptr %.046.i3, align 2, !tbaa !37
  %17 = zext i16 %16 to i32
  %18 = getelementptr inbounds i16, ptr %.046.i3, i64 %5
  %19 = load i16, ptr %18, align 2, !tbaa !37
  %20 = zext i16 %19 to i32
  %21 = sub nsw i32 %12, %17
  %22 = tail call i32 @llvm.abs.i32(i32 %21, i1 true)
  %23 = icmp slt i32 %22, %6
  br i1 %23, label %24, label %45

24:                                               ; preds = %9
  %25 = sub nsw i32 %15, %12
  %26 = tail call i32 @llvm.abs.i32(i32 %25, i1 true)
  %27 = icmp slt i32 %26, %7
  br i1 %27, label %28, label %45

28:                                               ; preds = %24
  %29 = sub nsw i32 %20, %17
  %30 = tail call i32 @llvm.abs.i32(i32 %29, i1 true)
  %31 = icmp samesign ult i32 %30, %7
  br i1 %31, label %32, label %45

32:                                               ; preds = %28
  %33 = shl nuw nsw i32 %15, 1
  %34 = add nuw nsw i32 %12, 2
  %35 = add nuw nsw i32 %34, %33
  %36 = add nuw nsw i32 %35, %20
  %37 = lshr i32 %36, 2
  %38 = trunc nuw i32 %37 to i16
  store i16 %38, ptr %10, align 2, !tbaa !37
  %39 = shl nuw nsw i32 %20, 1
  %40 = add nuw nsw i32 %15, 2
  %41 = add nuw nsw i32 %40, %17
  %42 = add nuw nsw i32 %41, %39
  %43 = lshr i32 %42, 2
  %44 = trunc nuw i32 %43 to i16
  store i16 %44, ptr %.046.i3, align 2, !tbaa !37
  br label %45

45:                                               ; preds = %32, %28, %24, %9
  %46 = getelementptr inbounds nuw i8, ptr %.046.i3, i64 2
  %47 = add nuw nsw i32 %.0.i4, 1
  %exitcond.not = icmp eq i32 %47, 8
  br i1 %exitcond.not, label %h264_loop_filter_chroma_intra_14_c.exit, label %9, !llvm.loop !100

h264_loop_filter_chroma_intra_14_c.exit:          ; preds = %45
  ret void
}